CCS PCM C Compiler, Version 4.104, 5967               08-nov-17 21:07

               Filename: C:\Users\aluno\Desktop\Microcontroladores\Exercicio c\Ex17\ex17.lst

               ROM used: 65 words (3%)
                         Largest free fragment is 1983
               RAM used: 6 (3%) at main() level
                         7 (3%) worst case
               Stack:    1 locations

*
0000:  NOP
0001:  MOVLW  00
0002:  MOVWF  0A
0003:  GOTO   019
.................... #include <16f628a.h> 
.................... //////// Standard Header file for the PIC16F628A device //////////////// 
.................... #device PIC16F628A 
.................... #list 
....................  
.................... #use delay (crystal = 4MHz) 
0004:  MOVLW  22
0005:  MOVWF  04
0006:  BCF    03.7
0007:  MOVF   00,W
0008:  BTFSC  03.2
0009:  GOTO   018
000A:  MOVLW  01
000B:  MOVWF  78
000C:  CLRF   77
000D:  DECFSZ 77,F
000E:  GOTO   00D
000F:  DECFSZ 78,F
0010:  GOTO   00C
0011:  MOVLW  4A
0012:  MOVWF  77
0013:  DECFSZ 77,F
0014:  GOTO   013
0015:  GOTO   016
0016:  DECFSZ 00,F
0017:  GOTO   00A
0018:  GOTO   038 (RETURN)
.................... #fuses xt, nowdt 
.................... #byte porta = 0x05 
.................... #byte portb = 0x06 
.................... #bit s1 = porta.0 
.................... #bit s2 = porta.1 
.................... #bit s3 = porta.2 
.................... #bit s4 = porta.3 
.................... #bit v1 = portb.0 
.................... #bit v2 = portb.1 
.................... #bit v3 = portb.2 
.................... #bit motor = portb.3 
.................... #bit v4 = portb.4 
....................  
.................... main(){ 
0019:  CLRF   04
001A:  BCF    03.7
001B:  MOVLW  1F
001C:  ANDWF  03,F
001D:  MOVLW  07
001E:  MOVWF  1F
.................... 	set_tris_a(0b00000000); 
001F:  MOVLW  00
0020:  TRIS   5
.................... 	set_tris_b(0b00000000); 
0021:  TRIS   6
.................... 	 
.................... 	v2=0;v3=0;v4=0;motor=0; 
0022:  BCF    06.1
0023:  BCF    06.2
0024:  BCF    06.4
0025:  BCF    06.3
.................... 	 
.................... 	while(1){ 
.................... 		v1 = 1; 
0026:  BSF    06.0
.................... 		while(s3==0); 
0027:  BTFSS  05.2
0028:  GOTO   027
.................... 		v1 = 0; v2 = 1; 
0029:  BCF    06.0
002A:  BSF    06.1
.................... 		while(s2==0); 
002B:  BTFSS  05.1
002C:  GOTO   02B
.................... 		v2 = 0;v3 = 1; 
002D:  BCF    06.1
002E:  BSF    06.2
.................... 		while(s1==0); 
002F:  BTFSS  05.0
0030:  GOTO   02F
.................... 		v3=0;motor=1; 
0031:  BCF    06.2
0032:  BSF    06.3
.................... 		delay_ms(5000); 
0033:  MOVLW  14
0034:  MOVWF  21
0035:  MOVLW  FA
0036:  MOVWF  22
0037:  GOTO   004
0038:  DECFSZ 21,F
0039:  GOTO   035
.................... 		motor = 0;v4 = 1; 
003A:  BCF    06.3
003B:  BSF    06.4
.................... 		while(s4==0); 
003C:  BTFSS  05.3
003D:  GOTO   03C
.................... 		v4=0; 
003E:  BCF    06.4
.................... 	} 
003F:  GOTO   026
....................  
.................... } 
0040:  GOTO   040

Configuration Fuses:
   Word  1: 3F09   XT NOWDT NOPUT NOPROTECT NOBROWNOUT NOMCLR NOLVP NOCPD
